; Function Attrs: mustprogress uwtable
define noundef zeroext i1 @_ZN6Unpack10UnpReadBufEv(ptr nocapture noundef nonnull align 8 dereferenceable(59688) %0) local_unnamed_addr #0 align 2 {
  %2 = getelementptr inbounds i8, ptr %0, i64 176
  %3 = load i32, ptr %2, align 8
  %4 = getelementptr inbounds i8, ptr %0, i64 8
  %5 = load i32, ptr %4, align 8
  %6 = sub nsw i32 %3, %5
  %7 = icmp slt i32 %6, 0
  br i1 %7, label %46, label %8

8:                                                ; preds = %1
  %9 = getelementptr inbounds i8, ptr %0, i64 184
  %10 = getelementptr inbounds i8, ptr %0, i64 192
  %11 = load i32, ptr %10, align 8
  %.neg = sub i32 %11, %5
  %12 = load i32, ptr %9, align 8
  %13 = add i32 %.neg, %12
  store i32 %13, ptr %9, align 8
  %14 = icmp sgt i32 %5, 16384
  br i1 %14, label %15, label %23

15:                                               ; preds = %8
  %.not = icmp eq i32 %6, 0
  br i1 %.not, label %22, label %16

16:                                               ; preds = %15
  %17 = getelementptr inbounds i8, ptr %0, i64 24
  %18 = load ptr, ptr %17, align 8
  %19 = zext nneg i32 %5 to i64
  %20 = getelementptr inbounds i8, ptr %18, i64 %19
  %21 = zext nneg i32 %6 to i64
  tail call void @llvm.memmove.p0.p0.i64(ptr align 1 %18, ptr nonnull align 1 %20, i64 %21, i1 false)
  br label %22

22:                                               ; preds = %16, %15
  store i32 0, ptr %4, align 8
  store i32 %6, ptr %2, align 8
  br label %23

23:                                               ; preds = %8, %22
  %.011 = phi i32 [ %6, %22 ], [ %3, %8 ]
  %.not18 = icmp eq i32 %.011, 32768
  br i1 %.not18, label %.thread, label %24

24:                                               ; preds = %23
  %25 = load ptr, ptr %0, align 8
  %26 = getelementptr inbounds i8, ptr %0, i64 24
  %27 = load ptr, ptr %26, align 8
  %28 = sext i32 %.011 to i64
  %29 = getelementptr inbounds i8, ptr %27, i64 %28
  %30 = sub nsw i32 32768, %.011
  %31 = sext i32 %30 to i64
  %32 = tail call noundef i32 @_ZN11ComprDataIO7UnpReadEPhm(ptr noundef nonnull align 8 dereferenceable(266) %25, ptr noundef %29, i64 noundef %31)
  %33 = icmp sgt i32 %32, 0
  %.pre = load i32, ptr %2, align 8
  br i1 %33, label %34, label %.thread

34:                                               ; preds = %24
  %35 = add nsw i32 %.pre, %32
  store i32 %35, ptr %2, align 8
  br label %.thread

.thread:                                          ; preds = %23, %34, %24
  %36 = phi i32 [ %35, %34 ], [ %.pre, %24 ], [ 32768, %23 ]
  %.021 = phi i32 [ %32, %34 ], [ %32, %24 ], [ 0, %23 ]
  %37 = add nsw i32 %36, -30
  %38 = getelementptr inbounds i8, ptr %0, i64 180
  store i32 %37, ptr %38, align 4
  %39 = load i32, ptr %4, align 8
  store i32 %39, ptr %10, align 8
  %40 = load i32, ptr %9, align 8
  %.not19 = icmp eq i32 %40, -1
  br i1 %.not19, label %44, label %41

41:                                               ; preds = %.thread
  %42 = add i32 %39, -1
  %43 = add i32 %42, %40
  %. = tail call i32 @llvm.smin.i32(i32 %37, i32 %43)
  store i32 %., ptr %38, align 4
  br label %44

44:                                               ; preds = %41, %.thread
  %45 = icmp ne i32 %.021, -1
  br label %46

46:                                               ; preds = %1, %44
  %.012 = phi i1 [ %45, %44 ], [ false, %1 ]
  ret i1 %.012
}